ccopy_reg
_reconstructor
p0
(cexercises
Exercises
p1
c__builtin__
object
p2
Ntp3
Rp4
(dp5
S'_items'
p6
(lp7
g0
(cexercises
Exercise
p8
g2
Ntp9
Rp10
(dp11
S'_description'
p12
S'build command line tool to calculate powers using argparse\r'
p13
sbag0
(g8
g2
Ntp14
Rp15
(dp16
g12
S'python classes with inheritance\r'
p17
sbag0
(g8
g2
Ntp18
Rp19
(dp20
g12
S'python classes with composition\r'
p21
sbag0
(g8
g2
Ntp22
Rp23
(dp24
g12
S'create functional test of trainer\r'
p25
sbasS'_index'
p26
I0
sb.